target datalayout = "e-m:e-p270:32:32-p271:32:32-p272:64:64-i64:64-i128:128-f80:128-n8:16:32:64-S128"
target triple = "x86_64-pc-linux-gnu"

%struct.expert_field = type { i32, i32 }
%struct._packet_info = type { ptr, ptr, i32, i32, %struct.nstime_t, %struct.nstime_t, %struct.nstime_t, i8, ptr, ptr, ptr, ptr, %struct._address, %struct._address, %struct._address, %struct._address, %struct._address, %struct._address, i32, ptr, i8, [3 x i8], %struct.anon, i32, i32, i32, i32, ptr, i8, ptr, ptr, i16, i16, i32, i32, i16, i32, i32, ptr, ptr, ptr, i8, i8, i16, i16, i16, i32, i16, i16, ptr, ptr, ptr, ptr, ptr, i32, i32 }
%struct.nstime_t = type { i64, i32 }
%struct._address = type { i32, i32, ptr, ptr }
%struct.anon = type { i8, [3 x i8] }

@hf_opcua_diag_mask = internal global i32 0, align 4
@hf_opcua_diag_symbolicid = internal global i32 0, align 4
@hf_opcua_diag_namespace = internal global i32 0, align 4
@hf_opcua_diag_localizedtext = internal global i32 0, align 4
@hf_opcua_diag_locale = internal global i32 0, align 4
@hf_opcua_diag_additionalinfo = internal global i32 0, align 4
@hf_opcua_diag_innerstatuscode = internal global i32 0, align 4
@ei_nesting_depth = internal global %struct.expert_field zeroinitializer, align 4
@ett_opcua_diagnosticinfo = internal global i32 0, align 4
@.str.177 = private unnamed_addr constant [19 x i8] c"%s: DiagnosticInfo\00", align 1
@proto_opcua = external global i32, align 4
@ett_opcua_diagnosticinfo_encodingmask = internal global i32 0, align 4
@.str.178 = private unnamed_addr constant [21 x i8] c"Inner DiagnosticInfo\00", align 1

; Function Attrs: null_pointer_is_valid sspstrong uwtable
define hidden ptr @parseInt32(ptr noundef %0, ptr noundef %1, ptr noundef %2, ptr noundef %3, i32 noundef %4) #0 {
  %6 = alloca ptr, align 8
  %7 = alloca ptr, align 8
  %8 = alloca ptr, align 8
  %9 = alloca ptr, align 8
  %10 = alloca i32, align 4
  %11 = alloca ptr, align 8
  store ptr %0, ptr %6, align 8
  store ptr %1, ptr %7, align 8
  store ptr %2, ptr %8, align 8
  store ptr %3, ptr %9, align 8
  store i32 %4, ptr %10, align 4
  call void @llvm.lifetime.start.p0(i64 8, ptr %11) #3
  %12 = load ptr, ptr %6, align 8
  %13 = load i32, ptr %10, align 4
  %14 = load ptr, ptr %7, align 8
  %15 = load ptr, ptr %9, align 8
  %16 = load i32, ptr %15, align 4
  %17 = call ptr @proto_tree_add_item(ptr noundef %12, i32 noundef %13, ptr noundef %14, i32 noundef %16, i32 noundef 4, i32 noundef -2147483648)
  store ptr %17, ptr %11, align 8
  %18 = load ptr, ptr %9, align 8
  %19 = load i32, ptr %18, align 4
  %20 = add i32 %19, 4
  store i32 %20, ptr %18, align 4
  %21 = load ptr, ptr %11, align 8
  call void @llvm.lifetime.end.p0(i64 8, ptr %11) #3
  ret ptr %21
}

; Function Attrs: null_pointer_is_valid sspstrong uwtable
define hidden void @parseDiagnosticInfo(ptr noundef %0, ptr noundef %1, ptr noundef %2, ptr noundef %3, ptr noundef %4) #0 {
  %6 = alloca ptr, align 8
  %7 = alloca ptr, align 8
  %8 = alloca ptr, align 8
  %9 = alloca ptr, align 8
  %10 = alloca ptr, align 8
  %11 = alloca i32, align 4
  %12 = alloca i8, align 1
  %13 = alloca ptr, align 8
  %14 = alloca ptr, align 8
  %15 = alloca i32, align 4
  %16 = alloca i32, align 4
  store ptr %0, ptr %6, align 8
  store ptr %1, ptr %7, align 8
  store ptr %2, ptr %8, align 8
  store ptr %3, ptr %9, align 8
  store ptr %4, ptr %10, align 8
  call void @llvm.lifetime.start.p0(i64 4, ptr %11) #3
  %17 = load ptr, ptr %9, align 8
  %18 = load i32, ptr %17, align 4
  store i32 %18, ptr %11, align 4
  call void @llvm.lifetime.start.p0(i64 1, ptr %12) #3
  call void @llvm.lifetime.start.p0(i64 8, ptr %13) #3
  call void @llvm.lifetime.start.p0(i64 8, ptr %14) #3
  call void @llvm.lifetime.start.p0(i64 4, ptr %15) #3
  %19 = load ptr, ptr %6, align 8
  %20 = load ptr, ptr %7, align 8
  %21 = load ptr, ptr %9, align 8
  %22 = load i32, ptr %21, align 4
  %23 = load i32, ptr @ett_opcua_diagnosticinfo, align 4
  %24 = load ptr, ptr %10, align 8
  %25 = call ptr (ptr, ptr, i32, i32, i32, ptr, ptr, ...) @proto_tree_add_subtree_format(ptr noundef %19, ptr noundef %20, i32 noundef %22, i32 noundef -1, i32 noundef %23, ptr noundef %14, ptr noundef @.str.177, ptr noundef %24)
  store ptr %25, ptr %13, align 8
  %26 = load ptr, ptr %8, align 8
  %27 = getelementptr inbounds nuw %struct._packet_info, ptr %26, i32 0, i32 51
  %28 = load ptr, ptr %27, align 8
  %29 = load ptr, ptr %8, align 8
  %30 = load i32, ptr @proto_opcua, align 4
  %31 = call ptr @p_get_proto_data(ptr noundef %28, ptr noundef %29, i32 noundef %30, i32 noundef 0)
  %32 = ptrtoint ptr %31 to i64
  %33 = trunc i64 %32 to i32
  store i32 %33, ptr %15, align 4
  %34 = load i32, ptr %15, align 4
  %35 = icmp uge i32 %34, 100
  br i1 %35, label %36, label %40

36:                                               ; preds = %5
  %37 = load ptr, ptr %8, align 8
  %38 = load ptr, ptr %14, align 8
  %39 = call ptr @expert_add_info(ptr noundef %37, ptr noundef %38, ptr noundef @ei_nesting_depth)
  store i32 1, ptr %16, align 4
  br label %154

40:                                               ; preds = %5
  %41 = load i32, ptr %15, align 4
  %42 = add i32 %41, 1
  store i32 %42, ptr %15, align 4
  %43 = load ptr, ptr %8, align 8
  %44 = getelementptr inbounds nuw %struct._packet_info, ptr %43, i32 0, i32 51
  %45 = load ptr, ptr %44, align 8
  %46 = load ptr, ptr %8, align 8
  %47 = load i32, ptr @proto_opcua, align 4
  %48 = load i32, ptr %15, align 4
  %49 = zext i32 %48 to i64
  %50 = inttoptr i64 %49 to ptr
  call void @p_add_proto_data(ptr noundef %45, ptr noundef %46, i32 noundef %47, i32 noundef 0, ptr noundef %50)
  %51 = load ptr, ptr %7, align 8
  %52 = load i32, ptr %11, align 4
  %53 = call zeroext i8 @tvb_get_uint8(ptr noundef %51, i32 noundef %52)
  store i8 %53, ptr %12, align 1
  %54 = load ptr, ptr %13, align 8
  %55 = load ptr, ptr %7, align 8
  %56 = load i32, ptr %11, align 4
  %57 = load i32, ptr @hf_opcua_diag_mask, align 4
  %58 = load i32, ptr @ett_opcua_diagnosticinfo_encodingmask, align 4
  %59 = call ptr @proto_tree_add_bitmask(ptr noundef %54, ptr noundef %55, i32 noundef %56, i32 noundef %57, i32 noundef %58, ptr noundef @parseDiagnosticInfo.diag_mask, i32 noundef -2147483648)
  %60 = load i32, ptr %11, align 4
  %61 = add i32 %60, 1
  store i32 %61, ptr %11, align 4
  %62 = load ptr, ptr %8, align 8
  call void @increment_dissection_depth(ptr noundef %62)
  %63 = load i8, ptr %12, align 1
  %64 = zext i8 %63 to i32
  %65 = and i32 %64, 1
  %66 = icmp ne i32 %65, 0
  br i1 %66, label %67, label %73

67:                                               ; preds = %40
  %68 = load ptr, ptr %13, align 8
  %69 = load ptr, ptr %7, align 8
  %70 = load ptr, ptr %8, align 8
  %71 = load i32, ptr @hf_opcua_diag_symbolicid, align 4
  %72 = call ptr @parseInt32(ptr noundef %68, ptr noundef %69, ptr noundef %70, ptr noundef %11, i32 noundef %71)
  br label %73

73:                                               ; preds = %67, %40
  %74 = load i8, ptr %12, align 1
  %75 = zext i8 %74 to i32
  %76 = and i32 %75, 2
  %77 = icmp ne i32 %76, 0
  br i1 %77, label %78, label %84

78:                                               ; preds = %73
  %79 = load ptr, ptr %13, align 8
  %80 = load ptr, ptr %7, align 8
  %81 = load ptr, ptr %8, align 8
  %82 = load i32, ptr @hf_opcua_diag_namespace, align 4
  %83 = call ptr @parseInt32(ptr noundef %79, ptr noundef %80, ptr noundef %81, ptr noundef %11, i32 noundef %82)
  br label %84

84:                                               ; preds = %78, %73
  %85 = load i8, ptr %12, align 1
  %86 = zext i8 %85 to i32
  %87 = and i32 %86, 8
  %88 = icmp ne i32 %87, 0
  br i1 %88, label %89, label %95

89:                                               ; preds = %84
  %90 = load ptr, ptr %13, align 8
  %91 = load ptr, ptr %7, align 8
  %92 = load ptr, ptr %8, align 8
  %93 = load i32, ptr @hf_opcua_diag_locale, align 4
  %94 = call ptr @parseInt32(ptr noundef %90, ptr noundef %91, ptr noundef %92, ptr noundef %11, i32 noundef %93)
  br label %95

95:                                               ; preds = %89, %84
  %96 = load i8, ptr %12, align 1
  %97 = zext i8 %96 to i32
  %98 = and i32 %97, 4
  %99 = icmp ne i32 %98, 0
  br i1 %99, label %100, label %106

100:                                              ; preds = %95
  %101 = load ptr, ptr %13, align 8
  %102 = load ptr, ptr %7, align 8
  %103 = load ptr, ptr %8, align 8
  %104 = load i32, ptr @hf_opcua_diag_localizedtext, align 4
  %105 = call ptr @parseInt32(ptr noundef %101, ptr noundef %102, ptr noundef %103, ptr noundef %11, i32 noundef %104)
  br label %106

106:                                              ; preds = %100, %95
  %107 = load i8, ptr %12, align 1
  %108 = zext i8 %107 to i32
  %109 = and i32 %108, 16
  %110 = icmp ne i32 %109, 0
  br i1 %110, label %111, label %117

111:                                              ; preds = %106
  %112 = load ptr, ptr %13, align 8
  %113 = load ptr, ptr %7, align 8
  %114 = load ptr, ptr %8, align 8
  %115 = load i32, ptr @hf_opcua_diag_additionalinfo, align 4
  %116 = call ptr @parseString(ptr noundef %112, ptr noundef %113, ptr noundef %114, ptr noundef %11, i32 noundef %115)
  br label %117

117:                                              ; preds = %111, %106
  %118 = load i8, ptr %12, align 1
  %119 = zext i8 %118 to i32
  %120 = and i32 %119, 32
  %121 = icmp ne i32 %120, 0
  br i1 %121, label %122, label %128

122:                                              ; preds = %117
  %123 = load ptr, ptr %13, align 8
  %124 = load ptr, ptr %7, align 8
  %125 = load ptr, ptr %8, align 8
  %126 = load i32, ptr @hf_opcua_diag_innerstatuscode, align 4
  %127 = call ptr @parseStatusCode(ptr noundef %123, ptr noundef %124, ptr noundef %125, ptr noundef %11, i32 noundef %126)
  br label %128

128:                                              ; preds = %122, %117
  %129 = load i8, ptr %12, align 1
  %130 = zext i8 %129 to i32
  %131 = and i32 %130, 64
  %132 = icmp ne i32 %131, 0
  br i1 %132, label %133, label %137

133:                                              ; preds = %128
  %134 = load ptr, ptr %13, align 8
  %135 = load ptr, ptr %7, align 8
  %136 = load ptr, ptr %8, align 8
  call void @parseDiagnosticInfo(ptr noundef %134, ptr noundef %135, ptr noundef %136, ptr noundef %11, ptr noundef @.str.178)
  br label %137

137:                                              ; preds = %133, %128
  %138 = load ptr, ptr %8, align 8
  call void @decrement_dissection_depth(ptr noundef %138)
  %139 = load ptr, ptr %14, align 8
  %140 = load ptr, ptr %7, align 8
  %141 = load i32, ptr %11, align 4
  call void @proto_item_set_end(ptr noundef %139, ptr noundef %140, i32 noundef %141)
  %142 = load i32, ptr %11, align 4
  %143 = load ptr, ptr %9, align 8
  store i32 %142, ptr %143, align 4
  %144 = load i32, ptr %15, align 4
  %145 = add i32 %144, -1
  store i32 %145, ptr %15, align 4
  %146 = load ptr, ptr %8, align 8
  %147 = getelementptr inbounds nuw %struct._packet_info, ptr %146, i32 0, i32 51
  %148 = load ptr, ptr %147, align 8
  %149 = load ptr, ptr %8, align 8
  %150 = load i32, ptr @proto_opcua, align 4
  %151 = load i32, ptr %15, align 4
  %152 = zext i32 %151 to i64
  %153 = inttoptr i64 %152 to ptr
  call void @p_add_proto_data(ptr noundef %148, ptr noundef %149, i32 noundef %150, i32 noundef 0, ptr noundef %153)
  store i32 0, ptr %16, align 4
  br label %154

154:                                              ; preds = %137, %36
  call void @llvm.lifetime.end.p0(i64 4, ptr %15) #3
  call void @llvm.lifetime.end.p0(i64 8, ptr %14) #3
  call void @llvm.lifetime.end.p0(i64 8, ptr %13) #3
  call void @llvm.lifetime.end.p0(i64 1, ptr %12) #3
  call void @llvm.lifetime.end.p0(i64 4, ptr %11) #3
  %155 = load i32, ptr %16, align 4
  switch i32 %155, label %157 [
    i32 0, label %156
    i32 1, label %156
  ]

156:                                              ; preds = %154, %154
  ret void

157:                                              ; preds = %154
  unreachable
}