; Function Attrs: null_pointer_is_valid sspstrong uwtable
define hidden void @parseDiagnosticInfo(ptr noundef %0, ptr noundef %1, ptr noundef %2, ptr noundef captures(none) %3, ptr noundef %4) #0 {
  %6 = alloca i32, align 4
  %7 = alloca ptr, align 8
  call void @llvm.lifetime.start.p0(i64 4, ptr nonnull %6) #4
  %8 = load i32, ptr %3, align 4
  call void @llvm.lifetime.start.p0(i64 8, ptr nonnull %7) #4
  %9 = load i32, ptr @ett_opcua_diagnosticinfo, align 4
  %10 = call ptr (ptr, ptr, i32, i32, i32, ptr, ptr, ...) @proto_tree_add_subtree_format(ptr noundef %0, ptr noundef %1, i32 noundef %8, i32 noundef -1, i32 noundef %9, ptr noundef nonnull %7, ptr noundef nonnull @.str.177, ptr noundef %4)
  %11 = getelementptr inbounds nuw i8, ptr %2, i64 408
  %12 = load ptr, ptr %11, align 8
  %13 = load i32, ptr @proto_opcua, align 4
  %14 = call ptr @p_get_proto_data(ptr noundef %12, ptr noundef %2, i32 noundef %13, i32 noundef 0)
  %15 = ptrtoint ptr %14 to i64
  %16 = trunc i64 %15 to i32
  %17 = icmp ugt i32 %16, 99
  br i1 %17, label %18, label %21

18:                                               ; preds = %5
  %19 = load ptr, ptr %7, align 8
  %20 = call ptr @expert_add_info(ptr noundef %2, ptr noundef %19, ptr noundef nonnull @ei_nesting_depth)
  br label %79

21:                                               ; preds = %5
  %22 = add nuw nsw i64 %15, 1
  %23 = load ptr, ptr %11, align 8
  %24 = load i32, ptr @proto_opcua, align 4
  %25 = and i64 %22, 255
  %26 = inttoptr i64 %25 to ptr
  call void @p_add_proto_data(ptr noundef %23, ptr noundef %2, i32 noundef %24, i32 noundef 0, ptr noundef %26)
  %27 = call zeroext i8 @tvb_get_uint8(ptr noundef %1, i32 noundef %8)
  %28 = load i32, ptr @hf_opcua_diag_mask, align 4
  %29 = load i32, ptr @ett_opcua_diagnosticinfo_encodingmask, align 4
  %30 = call ptr @proto_tree_add_bitmask(ptr noundef %10, ptr noundef %1, i32 noundef %8, i32 noundef %28, i32 noundef %29, ptr noundef nonnull @parseDiagnosticInfo.diag_mask, i32 noundef -2147483648)
  %31 = add i32 %8, 1
  store i32 %31, ptr %6, align 4
  call void @increment_dissection_depth(ptr noundef %2)
  %32 = zext i8 %27 to i32
  %33 = and i32 %32, 1
  %.not = icmp eq i32 %33, 0
  br i1 %.not, label %38, label %34

34:                                               ; preds = %21
  %35 = load i32, ptr @hf_opcua_diag_symbolicid, align 4
  %36 = call ptr @proto_tree_add_item(ptr noundef %10, i32 noundef %35, ptr noundef %1, i32 noundef %31, i32 noundef 4, i32 noundef -2147483648)
  %37 = add i32 %8, 5
  store i32 %37, ptr %6, align 4
  br label %38

38:                                               ; preds = %34, %21
  %39 = phi i32 [ %37, %34 ], [ %31, %21 ]
  %40 = and i32 %32, 2
  %.not51 = icmp eq i32 %40, 0
  br i1 %.not51, label %45, label %41

41:                                               ; preds = %38
  %42 = load i32, ptr @hf_opcua_diag_namespace, align 4
  %43 = call ptr @proto_tree_add_item(ptr noundef %10, i32 noundef %42, ptr noundef %1, i32 noundef %39, i32 noundef 4, i32 noundef -2147483648)
  %44 = add i32 %39, 4
  store i32 %44, ptr %6, align 4
  br label %45

45:                                               ; preds = %41, %38
  %46 = phi i32 [ %44, %41 ], [ %39, %38 ]
  %47 = and i32 %32, 8
  %.not52 = icmp eq i32 %47, 0
  br i1 %.not52, label %52, label %48

48:                                               ; preds = %45
  %49 = load i32, ptr @hf_opcua_diag_locale, align 4
  %50 = call ptr @proto_tree_add_item(ptr noundef %10, i32 noundef %49, ptr noundef %1, i32 noundef %46, i32 noundef 4, i32 noundef -2147483648)
  %51 = add i32 %46, 4
  store i32 %51, ptr %6, align 4
  br label %52

52:                                               ; preds = %48, %45
  %53 = phi i32 [ %51, %48 ], [ %46, %45 ]
  %54 = and i32 %32, 4
  %.not53 = icmp eq i32 %54, 0
  br i1 %.not53, label %59, label %55

55:                                               ; preds = %52
  %56 = load i32, ptr @hf_opcua_diag_localizedtext, align 4
  %57 = call ptr @proto_tree_add_item(ptr noundef %10, i32 noundef %56, ptr noundef %1, i32 noundef %53, i32 noundef 4, i32 noundef -2147483648)
  %58 = add i32 %53, 4
  store i32 %58, ptr %6, align 4
  br label %59

59:                                               ; preds = %55, %52
  %60 = and i32 %32, 16
  %.not54 = icmp eq i32 %60, 0
  br i1 %.not54, label %64, label %61

61:                                               ; preds = %59
  %62 = load i32, ptr @hf_opcua_diag_additionalinfo, align 4
  %63 = call ptr @parseString(ptr noundef %10, ptr noundef %1, ptr noundef %2, ptr noundef nonnull %6, i32 noundef %62)
  br label %64

64:                                               ; preds = %61, %59
  %65 = and i32 %32, 32
  %.not55 = icmp eq i32 %65, 0
  br i1 %.not55, label %69, label %66

66:                                               ; preds = %64
  %67 = load i32, ptr @hf_opcua_diag_innerstatuscode, align 4
  %68 = call ptr @parseStatusCode(ptr noundef %10, ptr noundef %1, ptr poison, ptr noundef nonnull %6, i32 noundef %67)
  br label %69

69:                                               ; preds = %66, %64
  %70 = and i32 %32, 64
  %.not56 = icmp eq i32 %70, 0
  br i1 %.not56, label %72, label %71

71:                                               ; preds = %69
  call void @parseDiagnosticInfo(ptr noundef %10, ptr noundef %1, ptr noundef %2, ptr noundef nonnull %6, ptr noundef nonnull @.str.178)
  br label %72

72:                                               ; preds = %71, %69
  call void @decrement_dissection_depth(ptr noundef %2)
  %73 = load ptr, ptr %7, align 8
  %74 = load i32, ptr %6, align 4
  call void @proto_item_set_end(ptr noundef %73, ptr noundef %1, i32 noundef %74)
  store i32 %74, ptr %3, align 4
  %75 = load ptr, ptr %11, align 8
  %76 = load i32, ptr @proto_opcua, align 4
  %77 = and i64 %15, 127
  %78 = inttoptr i64 %77 to ptr
  call void @p_add_proto_data(ptr noundef %75, ptr noundef %2, i32 noundef %76, i32 noundef 0, ptr noundef %78)
  br label %79

79:                                               ; preds = %72, %18
  call void @llvm.lifetime.end.p0(i64 8, ptr nonnull %7) #4
  call void @llvm.lifetime.end.p0(i64 4, ptr nonnull %6) #4
  ret void
}